target datalayout = "e-m:e-p270:32:32-p271:32:32-p272:64:64-i64:64-i128:128-f80:128-n8:16:32:64-S128"
target triple = "x86_64-pc-linux-gnu"

%struct.lv_ll_t = type { i32, ptr, ptr }
%struct._lv_ime_pinyin_t = type { %struct._lv_obj_t, ptr, ptr, ptr, %struct.lv_ll_t, ptr, [16 x i8], [8 x i8], i16, i16, i16, i16, i16, i16, [26 x i16], [26 x i16], i32 }
%struct._lv_obj_t = type { ptr, ptr, ptr, ptr, ptr, %struct.lv_area_t, i32, i16, i16 }
%struct.lv_area_t = type { i32, i32, i32, i32 }

@.str.18 = private unnamed_addr constant [2 x i8] zeroinitializer, align 1
@lv_pinyin_cand_str = internal global [6 x [4 x i8]] zeroinitializer, align 16
@lv_pinyin_k9_cand_str = internal global [5 x [7 x i8]] zeroinitializer, align 16
@.str.659 = private unnamed_addr constant [2 x i8] c" \00", align 1
@.str.660 = private unnamed_addr constant [5 x i8] c"\EF\81\94\00\00", align 1

; Function Attrs: inlinehint nounwind uwtable
define internal void @lv_memzero(ptr noundef %0, i64 noundef %1) #3 {
  %3 = alloca ptr, align 8
  %4 = alloca i64, align 8
  store ptr %0, ptr %3, align 8, !tbaa !41
  store i64 %1, ptr %4, align 8, !tbaa !47
  %5 = load ptr, ptr %3, align 8, !tbaa !41
  %6 = load i64, ptr %4, align 8, !tbaa !47
  call void @lv_memset(ptr noundef %5, i8 noundef zeroext 0, i64 noundef %6)
  ret void
}

; Function Attrs: nounwind uwtable
define internal void @pinyin_ime_clear_data(ptr noundef %0) #0 {
  %2 = alloca ptr, align 8
  %3 = alloca ptr, align 8
  %4 = alloca i8, align 1
  %5 = alloca i8, align 1
  store ptr %0, ptr %2, align 8, !tbaa !8
  call void @llvm.lifetime.start.p0(i64 8, ptr %3) #6
  %6 = load ptr, ptr %2, align 8, !tbaa !8
  store ptr %6, ptr %3, align 8, !tbaa !10
  %7 = load ptr, ptr %3, align 8, !tbaa !10
  %8 = getelementptr inbounds nuw %struct._lv_ime_pinyin_t, ptr %7, i32 0, i32 16
  %9 = load i32, ptr %8, align 4, !tbaa !19
  %10 = icmp eq i32 %9, 1
  br i1 %10, label %11, label %41

11:                                               ; preds = %1
  %12 = load ptr, ptr %3, align 8, !tbaa !10
  %13 = getelementptr inbounds nuw %struct._lv_ime_pinyin_t, ptr %12, i32 0, i32 10
  store i16 0, ptr %13, align 4, !tbaa !31
  %14 = load ptr, ptr %3, align 8, !tbaa !10
  %15 = getelementptr inbounds nuw %struct._lv_ime_pinyin_t, ptr %14, i32 0, i32 8
  store i16 0, ptr %15, align 8, !tbaa !32
  %16 = load ptr, ptr %3, align 8, !tbaa !10
  %17 = getelementptr inbounds nuw %struct._lv_ime_pinyin_t, ptr %16, i32 0, i32 9
  store i16 0, ptr %17, align 2, !tbaa !33
  %18 = load ptr, ptr %3, align 8, !tbaa !10
  %19 = getelementptr inbounds nuw %struct._lv_ime_pinyin_t, ptr %18, i32 0, i32 7
  %20 = getelementptr inbounds [8 x i8], ptr %19, i64 0, i64 0
  call void @lv_memzero(ptr noundef %20, i64 noundef 7)
  call void @lv_memzero(ptr noundef @lv_pinyin_k9_cand_str, i64 noundef 35)
  call void @llvm.lifetime.start.p0(i64 1, ptr %4) #6
  store i8 0, ptr %4, align 1, !tbaa !16
  br label %21

21:                                               ; preds = %32, %11
  %22 = load i8, ptr %4, align 1, !tbaa !16
  %23 = zext i8 %22 to i32
  %24 = icmp slt i32 %23, 6
  br i1 %24, label %26, label %25

25:                                               ; preds = %21
  call void @llvm.lifetime.end.p0(i64 1, ptr %4) #6
  br label %35

26:                                               ; preds = %21
  %27 = load i8, ptr %4, align 1, !tbaa !16
  %28 = zext i8 %27 to i64
  %29 = getelementptr inbounds nuw [5 x [7 x i8]], ptr @lv_pinyin_k9_cand_str, i64 0, i64 %28
  %30 = getelementptr inbounds [7 x i8], ptr %29, i64 0, i64 0
  %31 = call ptr @lv_strcpy(ptr noundef %30, ptr noundef @.str.659)
  br label %32

32:                                               ; preds = %26
  %33 = load i8, ptr %4, align 1, !tbaa !16
  %34 = add i8 %33, 1
  store i8 %34, ptr %4, align 1, !tbaa !16
  br label %21, !llvm.loop !56

35:                                               ; preds = %25
  %36 = call ptr @lv_strcpy(ptr noundef getelementptr inbounds ([5 x [7 x i8]], ptr @lv_pinyin_k9_cand_str, i64 0, i64 3), ptr noundef @.str.660)
  %37 = call ptr @lv_strcpy(ptr noundef getelementptr inbounds ([5 x [7 x i8]], ptr @lv_pinyin_k9_cand_str, i64 0, i64 4), ptr noundef @.str.18)
  %38 = load ptr, ptr %3, align 8, !tbaa !10
  %39 = getelementptr inbounds nuw %struct._lv_ime_pinyin_t, ptr %38, i32 0, i32 1
  %40 = load ptr, ptr %39, align 8, !tbaa !34
  call void @lv_buttonmatrix_set_map(ptr noundef %40, ptr noundef @lv_btnm_def_pinyin_k9_map)
  br label %41

41:                                               ; preds = %35, %1
  %42 = load ptr, ptr %3, align 8, !tbaa !10
  %43 = getelementptr inbounds nuw %struct._lv_ime_pinyin_t, ptr %42, i32 0, i32 11
  store i16 0, ptr %43, align 2, !tbaa !28
  call void @llvm.lifetime.start.p0(i64 1, ptr %5) #6
  store i8 0, ptr %5, align 1, !tbaa !16
  br label %44

44:                                               ; preds = %58, %41
  %45 = load i8, ptr %5, align 1, !tbaa !16
  %46 = zext i8 %45 to i32
  %47 = icmp slt i32 %46, 6
  br i1 %47, label %49, label %48

48:                                               ; preds = %44
  call void @llvm.lifetime.end.p0(i64 1, ptr %5) #6
  br label %61

49:                                               ; preds = %44
  %50 = load i8, ptr %5, align 1, !tbaa !16
  %51 = zext i8 %50 to i64
  %52 = getelementptr inbounds nuw [6 x [4 x i8]], ptr @lv_pinyin_cand_str, i64 0, i64 %51
  %53 = getelementptr inbounds [4 x i8], ptr %52, i64 0, i64 0
  call void @lv_memset(ptr noundef %53, i8 noundef zeroext 0, i64 noundef 4)
  %54 = load i8, ptr %5, align 1, !tbaa !16
  %55 = zext i8 %54 to i64
  %56 = getelementptr inbounds nuw [6 x [4 x i8]], ptr @lv_pinyin_cand_str, i64 0, i64 %55
  %57 = getelementptr inbounds [4 x i8], ptr %56, i64 0, i64 0
  store i8 32, ptr %57, align 4, !tbaa !16
  br label %58

58:                                               ; preds = %49
  %59 = load i8, ptr %5, align 1, !tbaa !16
  %60 = add i8 %59, 1
  store i8 %60, ptr %5, align 1, !tbaa !16
  br label %44, !llvm.loop !57

61:                                               ; preds = %48
  %62 = load ptr, ptr %3, align 8, !tbaa !10
  %63 = getelementptr inbounds nuw %struct._lv_ime_pinyin_t, ptr %62, i32 0, i32 6
  %64 = getelementptr inbounds [16 x i8], ptr %63, i64 0, i64 0
  call void @lv_memzero(ptr noundef %64, i64 noundef 16)
  %65 = load ptr, ptr %3, align 8, !tbaa !10
  %66 = getelementptr inbounds nuw %struct._lv_ime_pinyin_t, ptr %65, i32 0, i32 2
  %67 = load ptr, ptr %66, align 8, !tbaa !30
  call void @lv_obj_add_flag(ptr noundef %67, i32 noundef 1)
  call void @llvm.lifetime.end.p0(i64 8, ptr %3) #6
  ret void
}