; Function Attrs: nounwind uwtable
define internal fastcc void @pinyin_ime_clear_data(ptr noundef %0) unnamed_addr #0 {
  %2 = getelementptr inbounds nuw i8, ptr %0, i64 260
  %3 = load i32, ptr %2, align 4, !tbaa !11
  %4 = icmp eq i32 %3, 1
  br i1 %4, label %5, label %18

5:                                                ; preds = %1
  %6 = getelementptr inbounds nuw i8, ptr %0, i64 148
  store i16 0, ptr %6, align 4, !tbaa !31
  %7 = getelementptr inbounds nuw i8, ptr %0, i64 144
  store i16 0, ptr %7, align 8, !tbaa !32
  %8 = getelementptr inbounds nuw i8, ptr %0, i64 146
  store i16 0, ptr %8, align 2, !tbaa !33
  %9 = getelementptr inbounds nuw i8, ptr %0, i64 136
  tail call void @lv_memset(ptr noundef nonnull %9, i8 noundef zeroext 0, i64 noundef 7) #6
  tail call void @lv_memset(ptr noundef nonnull @lv_pinyin_k9_cand_str, i8 noundef zeroext 0, i64 noundef 35) #6
  br label %15

10:                                               ; preds = %15
  %11 = tail call ptr @lv_strcpy(ptr noundef nonnull getelementptr inbounds nuw (i8, ptr @lv_pinyin_k9_cand_str, i64 21), ptr noundef nonnull @.str.660) #6
  %12 = tail call ptr @lv_strcpy(ptr noundef nonnull getelementptr inbounds nuw (i8, ptr @lv_pinyin_k9_cand_str, i64 28), ptr noundef nonnull @.str.18) #6
  %13 = getelementptr inbounds nuw i8, ptr %0, i64 64
  %14 = load ptr, ptr %13, align 8, !tbaa !36
  tail call void @lv_buttonmatrix_set_map(ptr noundef %14, ptr noundef nonnull @lv_btnm_def_pinyin_k9_map) #6
  br label %18

15:                                               ; preds = %5, %15
  %indvars.iv = phi i64 [ 0, %5 ], [ %indvars.iv.next, %15 ]
  %16 = getelementptr inbounds nuw [5 x [7 x i8]], ptr @lv_pinyin_k9_cand_str, i64 0, i64 %indvars.iv
  %17 = tail call ptr @lv_strcpy(ptr noundef nonnull %16, ptr noundef nonnull @.str.659) #6
  %indvars.iv.next = add nuw nsw i64 %indvars.iv, 1
  %exitcond.not = icmp eq i64 %indvars.iv.next, 6
  br i1 %exitcond.not, label %10, label %15, !llvm.loop !45

18:                                               ; preds = %10, %1
  %19 = getelementptr inbounds nuw i8, ptr %0, i64 150
  store i16 0, ptr %19, align 2, !tbaa !23
  br label %24

20:                                               ; preds = %24
  %21 = getelementptr inbounds nuw i8, ptr %0, i64 120
  tail call void @lv_memset(ptr noundef nonnull %21, i8 noundef zeroext 0, i64 noundef 16) #6
  %22 = getelementptr inbounds nuw i8, ptr %0, i64 72
  %23 = load ptr, ptr %22, align 8, !tbaa !30
  tail call void @lv_obj_add_flag(ptr noundef %23, i32 noundef 1) #6
  ret void

24:                                               ; preds = %18, %24
  %indvars.iv20 = phi i64 [ 0, %18 ], [ %indvars.iv.next21, %24 ]
  %25 = getelementptr inbounds nuw [6 x [4 x i8]], ptr @lv_pinyin_cand_str, i64 0, i64 %indvars.iv20
  tail call void @lv_memset(ptr noundef nonnull %25, i8 noundef zeroext 0, i64 noundef 4) #6
  store i8 32, ptr %25, align 4, !tbaa !8
  %indvars.iv.next21 = add nuw nsw i64 %indvars.iv20, 1
  %exitcond23.not = icmp eq i64 %indvars.iv.next21, 6
  br i1 %exitcond23.not, label %20, label %24, !llvm.loop !46
}